target datalayout = "e-m:e-p270:32:32-p271:32:32-p272:64:64-i64:64-i128:128-f80:128-n8:16:32:64-S128"
target triple = "x86_64-pc-linux-gnu"

; Function Attrs: nounwind sspstrong uwtable
define hidden void @FLAC__window_welch(ptr noundef %0, i32 noundef %1) #0 {
  %3 = alloca ptr, align 8
  %4 = alloca i32, align 4
  %5 = alloca i32, align 4
  %6 = alloca double, align 8
  %7 = alloca i32, align 4
  %8 = alloca double, align 8
  store ptr %0, ptr %3, align 8, !tbaa !3
  store i32 %1, ptr %4, align 4, !tbaa !8
  call void @llvm.lifetime.start.p0(i64 4, ptr %5) #4
  %9 = load i32, ptr %4, align 4, !tbaa !8
  %10 = sub nsw i32 %9, 1
  store i32 %10, ptr %5, align 4, !tbaa !8
  call void @llvm.lifetime.start.p0(i64 8, ptr %6) #4
  %11 = load i32, ptr %5, align 4, !tbaa !8
  %12 = sitofp i32 %11 to double
  %13 = fdiv reassoc nsz arcp double %12, 2.000000e+00
  store double %13, ptr %6, align 8, !tbaa !20
  call void @llvm.lifetime.start.p0(i64 4, ptr %7) #4
  store i32 0, ptr %7, align 4, !tbaa !8
  br label %14

14:                                               ; preds = %34, %2
  %15 = load i32, ptr %7, align 4, !tbaa !8
  %16 = load i32, ptr %5, align 4, !tbaa !8
  %17 = icmp sle i32 %15, %16
  br i1 %17, label %18, label %37

18:                                               ; preds = %14
  call void @llvm.lifetime.start.p0(i64 8, ptr %8) #4
  %19 = load i32, ptr %7, align 4, !tbaa !8
  %20 = sitofp i32 %19 to double
  %21 = load double, ptr %6, align 8, !tbaa !20
  %22 = fsub reassoc nsz arcp double %20, %21
  %23 = load double, ptr %6, align 8, !tbaa !20
  %24 = fdiv reassoc nsz arcp double %22, %23
  store double %24, ptr %8, align 8, !tbaa !20
  %25 = load double, ptr %8, align 8, !tbaa !20
  %26 = load double, ptr %8, align 8, !tbaa !20
  %27 = fneg reassoc nsz arcp double %25
  %28 = call reassoc nsz arcp double @llvm.fmuladd.f64(double %27, double %26, double 1.000000e+00)
  %29 = fptrunc reassoc nsz arcp double %28 to float
  %30 = load ptr, ptr %3, align 8, !tbaa !3
  %31 = load i32, ptr %7, align 4, !tbaa !8
  %32 = sext i32 %31 to i64
  %33 = getelementptr inbounds float, ptr %30, i64 %32
  store float %29, ptr %33, align 4, !tbaa !10
  call void @llvm.lifetime.end.p0(i64 8, ptr %8) #4
  br label %34

34:                                               ; preds = %18
  %35 = load i32, ptr %7, align 4, !tbaa !8
  %36 = add nsw i32 %35, 1
  store i32 %36, ptr %7, align 4, !tbaa !8
  br label %14, !llvm.loop !47

37:                                               ; preds = %14
  call void @llvm.lifetime.end.p0(i64 4, ptr %7) #4
  call void @llvm.lifetime.end.p0(i64 8, ptr %6) #4
  call void @llvm.lifetime.end.p0(i64 4, ptr %5) #4
  ret void
}