; Function Attrs: nofree norecurse nosync nounwind sspstrong memory(argmem: write) uwtable
define hidden void @FLAC__window_welch(ptr noundef writeonly captures(none) %0, i32 noundef %1) local_unnamed_addr #0 {
  %3 = add nsw i32 %1, -1
  %4 = sitofp i32 %3 to double
  %5 = fmul reassoc nsz arcp double %4, 5.000000e-01
  %.not.not11 = icmp sgt i32 %1, 0
  br i1 %.not.not11, label %.lr.ph.preheader, label %._crit_edge

.lr.ph.preheader:                                 ; preds = %2
  %wide.trip.count = zext nneg i32 %1 to i64
  %6 = fdiv reassoc nsz arcp double 1.000000e+00, %4
  br label %.lr.ph

.lr.ph:                                           ; preds = %.lr.ph.preheader, %.lr.ph
  %indvars.iv = phi i64 [ 0, %.lr.ph.preheader ], [ %indvars.iv.next, %.lr.ph ]
  %7 = trunc nuw nsw i64 %indvars.iv to i32
  %8 = uitofp nneg i32 %7 to double
  %9 = fsub reassoc nsz arcp double %8, %5
  %10 = fmul reassoc nsz arcp double %9, 2.000000e+00
  %11 = fmul reassoc nsz arcp double %10, %6
  %12 = fneg reassoc nsz arcp double %11
  %13 = tail call reassoc nsz arcp double @llvm.fmuladd.f64(double %12, double %11, double 1.000000e+00)
  %14 = fptrunc reassoc nsz arcp double %13 to float
  %15 = getelementptr inbounds nuw float, ptr %0, i64 %indvars.iv
  store float %14, ptr %15, align 4, !tbaa !3
  %indvars.iv.next = add nuw nsw i64 %indvars.iv, 1
  %exitcond.not = icmp eq i64 %indvars.iv.next, %wide.trip.count
  br i1 %exitcond.not, label %._crit_edge, label %.lr.ph, !llvm.loop !40

._crit_edge:                                      ; preds = %.lr.ph, %2
  ret void
}